; Function Attrs: mustprogress uwtable
define internal fastcc void @_ZN7testing12_GLOBAL__N_126PrintByteSegmentInObjectToEPKhmmPSo(ptr noundef readonly captures(none) %0, i64 noundef range(i64 68, 1) %1, i64 noundef %2, ptr noundef %3) unnamed_addr #3 {
  %5 = alloca i8, align 1
  %6 = alloca i8, align 1
  %7 = alloca [5 x i8], align 1
  call void @llvm.lifetime.start.p0(i64 5, ptr nonnull %7) #57
  call void @llvm.memset.p0.i64(ptr noundef nonnull align 1 dereferenceable(5) %7, i8 0, i64 5, i1 false)
  %invariant.gep = getelementptr i8, ptr %3, i64 16
  %.not18 = icmp eq i64 %2, 0
  br i1 %.not18, label %._crit_edge, label %.lr.ph

._crit_edge:                                      ; preds = %30, %4
  call void @llvm.lifetime.end.p0(i64 5, ptr nonnull %7) #57
  ret void

.lr.ph:                                           ; preds = %4, %30
  %.019 = phi i64 [ %37, %30 ], [ 0, %4 ]
  %8 = add i64 %.019, %1
  %.not11 = icmp eq i64 %.019, 0
  br i1 %.not11, label %30, label %9

9:                                                ; preds = %.lr.ph
  %10 = and i64 %8, 1
  %11 = icmp eq i64 %10, 0
  br i1 %11, label %12, label %21

12:                                               ; preds = %9
  call void @llvm.lifetime.start.p0(i64 1, ptr nonnull %6)
  store i8 32, ptr %6, align 1, !tbaa !28
  %13 = load ptr, ptr %3, align 8, !tbaa !33
  %14 = getelementptr i8, ptr %13, i64 -24
  %15 = load i64, ptr %14, align 8
  %gep17 = getelementptr i8, ptr %invariant.gep, i64 %15
  %16 = load i64, ptr %gep17, align 8, !tbaa !507
  %.not.i = icmp eq i64 %16, 0
  br i1 %.not.i, label %19, label %17

17:                                               ; preds = %12
  %18 = call noundef nonnull align 8 dereferenceable(8) ptr @_ZSt16__ostream_insertIcSt11char_traitsIcEERSt13basic_ostreamIT_T0_ES6_PKS3_l(ptr noundef nonnull align 8 dereferenceable(8) %3, ptr noundef nonnull %6, i64 noundef 1)
  br label %_ZStlsISt11char_traitsIcEERSt13basic_ostreamIcT_ES5_c.exit

19:                                               ; preds = %12
  %20 = call noundef nonnull align 8 dereferenceable(8) ptr @_ZNSo3putEc(ptr noundef nonnull align 8 dereferenceable(8) %3, i8 noundef signext 32)
  br label %_ZStlsISt11char_traitsIcEERSt13basic_ostreamIcT_ES5_c.exit

_ZStlsISt11char_traitsIcEERSt13basic_ostreamIcT_ES5_c.exit: ; preds = %17, %19
  call void @llvm.lifetime.end.p0(i64 1, ptr nonnull %6)
  br label %30

21:                                               ; preds = %9
  call void @llvm.lifetime.start.p0(i64 1, ptr nonnull %5)
  store i8 45, ptr %5, align 1, !tbaa !28
  %22 = load ptr, ptr %3, align 8, !tbaa !33
  %23 = getelementptr i8, ptr %22, i64 -24
  %24 = load i64, ptr %23, align 8
  %gep = getelementptr i8, ptr %invariant.gep, i64 %24
  %25 = load i64, ptr %gep, align 8, !tbaa !507
  %.not.i12 = icmp eq i64 %25, 0
  br i1 %.not.i12, label %28, label %26

26:                                               ; preds = %21
  %27 = call noundef nonnull align 8 dereferenceable(8) ptr @_ZSt16__ostream_insertIcSt11char_traitsIcEERSt13basic_ostreamIT_T0_ES6_PKS3_l(ptr noundef nonnull align 8 dereferenceable(8) %3, ptr noundef nonnull %5, i64 noundef 1)
  br label %_ZStlsISt11char_traitsIcEERSt13basic_ostreamIcT_ES5_c.exit14

28:                                               ; preds = %21
  %29 = call noundef nonnull align 8 dereferenceable(8) ptr @_ZNSo3putEc(ptr noundef nonnull align 8 dereferenceable(8) %3, i8 noundef signext 45)
  br label %_ZStlsISt11char_traitsIcEERSt13basic_ostreamIcT_ES5_c.exit14

_ZStlsISt11char_traitsIcEERSt13basic_ostreamIcT_ES5_c.exit14: ; preds = %26, %28
  call void @llvm.lifetime.end.p0(i64 1, ptr nonnull %5)
  br label %30

30:                                               ; preds = %_ZStlsISt11char_traitsIcEERSt13basic_ostreamIcT_ES5_c.exit, %_ZStlsISt11char_traitsIcEERSt13basic_ostreamIcT_ES5_c.exit14, %.lr.ph
  %31 = getelementptr inbounds nuw i8, ptr %0, i64 %8
  %32 = load i8, ptr %31, align 1, !tbaa !28
  %33 = zext i8 %32 to i32
  %34 = call i32 (ptr, i64, ptr, ...) @snprintf(ptr noundef nonnull dereferenceable(1) %7, i64 noundef 5, ptr noundef nonnull @.str.441, i32 noundef %33) #57
  %35 = call noundef i64 @strlen(ptr noundef nonnull dereferenceable(1) %7) #57
  %36 = call noundef nonnull align 8 dereferenceable(8) ptr @_ZSt16__ostream_insertIcSt11char_traitsIcEERSt13basic_ostreamIT_T0_ES6_PKS3_l(ptr noundef nonnull align 8 dereferenceable(8) %3, ptr noundef nonnull %7, i64 noundef %35)
  %37 = add nuw i64 %.019, 1
  %.not = icmp eq i64 %37, %2
  br i1 %.not, label %._crit_edge, label %.lr.ph, !llvm.loop !1508
}